; Function Attrs: mustprogress nounwind uwtable
define internal fastcc noundef zeroext i1 @_ZN4node12_GLOBAL__N_111ZlibContext8InitZlibEv(ptr noundef nonnull align 8 dereferenceable(224) %this) unnamed_addr #3 align 2 {
entry:
  %tmp = alloca %"struct.node::(anonymous namespace)::CompressionError", align 8
  %mutex_ = getelementptr inbounds i8, ptr %this, i64 8
  tail call void @uv_mutex_lock(ptr noundef nonnull %mutex_) #22
  %zlib_init_done_ = getelementptr inbounds i8, ptr %this, i64 48
  %0 = load i8, ptr %zlib_init_done_, align 8
  %1 = and i8 %0, 1
  %tobool.not = icmp eq i8 %1, 0
  br i1 %tobool.not, label %if.end, label %cleanup

if.end:                                           ; preds = %entry
  %mode_ = getelementptr inbounds i8, ptr %this, i64 68
  %2 = load i32, ptr %mode_, align 4
  switch i32 %2, label %do.body [
    i32 1, label %sw.bb
    i32 3, label %sw.bb
    i32 5, label %sw.bb
    i32 2, label %sw.bb2
    i32 4, label %sw.bb2
    i32 6, label %sw.bb2
    i32 7, label %sw.bb2
  ]

sw.bb:                                            ; preds = %if.end, %if.end, %if.end
  %strm_ = getelementptr inbounds i8, ptr %this, i64 112
  %level_ = getelementptr inbounds i8, ptr %this, i64 60
  %3 = load i32, ptr %level_, align 4
  %window_bits_ = getelementptr inbounds i8, ptr %this, i64 76
  %4 = load i32, ptr %window_bits_, align 4
  %mem_level_ = getelementptr inbounds i8, ptr %this, i64 64
  %5 = load i32, ptr %mem_level_, align 8
  %strategy_ = getelementptr inbounds i8, ptr %this, i64 72
  %6 = load i32, ptr %strategy_, align 8
  %call = tail call i32 @deflateInit2_(ptr noundef nonnull %strm_, i32 noundef %3, i32 noundef 8, i32 noundef %4, i32 noundef %5, i32 noundef %6, ptr noundef nonnull @.str.113, i32 noundef 112) #22
  br label %sw.epilog

sw.bb2:                                           ; preds = %if.end, %if.end, %if.end, %if.end
  %strm_3 = getelementptr inbounds i8, ptr %this, i64 112
  %window_bits_4 = getelementptr inbounds i8, ptr %this, i64 76
  %7 = load i32, ptr %window_bits_4, align 4
  %call5 = tail call i32 @inflateInit2_(ptr noundef nonnull %strm_3, i32 noundef %7, ptr noundef nonnull @.str.113, i32 noundef 112) #22
  br label %sw.epilog

do.body:                                          ; preds = %if.end
  tail call void @_ZN4node6AssertERKNS_13AssertionInfoE(ptr noundef nonnull align 8 dereferenceable(24) @_ZZN4node12_GLOBAL__N_111ZlibContext8InitZlibEvE4args) #22
  tail call void @abort() #23
  unreachable

sw.epilog:                                        ; preds = %sw.bb2, %sw.bb
  %call5.sink = phi i32 [ %call5, %sw.bb2 ], [ %call, %sw.bb ]
  %err_6 = getelementptr inbounds i8, ptr %this, i64 52
  store i32 %call5.sink, ptr %err_6, align 4
  %cmp.not = icmp eq i32 %call5.sink, 0
  br i1 %cmp.not, label %if.end10, label %if.then8

if.then8:                                         ; preds = %sw.epilog
  %dictionary_ = getelementptr inbounds i8, ptr %this, i64 88
  %8 = load ptr, ptr %dictionary_, align 8
  %_M_finish.i.i = getelementptr inbounds i8, ptr %this, i64 96
  %9 = load ptr, ptr %_M_finish.i.i, align 8
  %tobool.not.i.i = icmp eq ptr %9, %8
  br i1 %tobool.not.i.i, label %_ZNSt6vectorIhSaIhEE5clearEv.exit, label %if.then.i.i

if.then.i.i:                                      ; preds = %if.then8
  store ptr %8, ptr %_M_finish.i.i, align 8
  br label %_ZNSt6vectorIhSaIhEE5clearEv.exit

_ZNSt6vectorIhSaIhEE5clearEv.exit:                ; preds = %if.then8, %if.then.i.i
  store i32 0, ptr %mode_, align 4
  br label %cleanup

if.end10:                                         ; preds = %sw.epilog
  call fastcc void @_ZN4node12_GLOBAL__N_111ZlibContext13SetDictionaryEv(ptr noalias nonnull align 8 %tmp, ptr noundef nonnull align 8 dereferenceable(224) %this)
  store i8 1, ptr %zlib_init_done_, align 8
  br label %cleanup

cleanup:                                          ; preds = %entry, %if.end10, %_ZNSt6vectorIhSaIhEE5clearEv.exit
  tail call void @uv_mutex_unlock(ptr noundef nonnull %mutex_) #22
  ret i1 %tobool.not
}